; Function Attrs: mustprogress uwtable
define hidden void @_ZN4cvc58internal13preprocessing6passes22PseudoBooleanProcessor5learnERKSt6vectorINS0_12NodeTemplateILb1EEESaIS6_EE(ptr noundef nonnull align 8 dereferenceable(624) %0, ptr noundef nonnull readonly align 8 captures(none) dereferenceable(24) %1) local_unnamed_addr #3 align 2 personality ptr @__gxx_personality_v0 {
  %3 = alloca %"class.cvc5::internal::NodeTemplate", align 8
  %4 = load ptr, ptr %1, align 8, !tbaa !63
  %5 = getelementptr inbounds nuw i8, ptr %1, i64 8
  %6 = load ptr, ptr %5, align 8, !tbaa !63
  %.not8 = icmp eq ptr %4, %6
  br i1 %.not8, label %._crit_edge, label %.lr.ph

.lr.ph:                                           ; preds = %2, %_ZN4cvc58internal12NodeTemplateILb1EED2Ev.exit
  %.sroa.05.09 = phi ptr [ %35, %_ZN4cvc58internal12NodeTemplateILb1EED2Ev.exit ], [ %4, %2 ]
  %7 = load ptr, ptr %.sroa.05.09, align 8, !tbaa !65
  store ptr %7, ptr %3, align 8, !tbaa !65
  %8 = load i64, ptr %7, align 8
  %9 = lshr i64 %8, 40
  %10 = trunc nuw nsw i64 %9 to i32
  %11 = and i32 %10, 1048575
  %12 = icmp samesign ult i32 %11, 1048574
  br i1 %12, label %13, label %18, !prof !68

13:                                               ; preds = %.lr.ph
  %14 = add i64 %8, 1099511627776
  %15 = and i64 %14, 1152920405095219200
  %16 = and i64 %8, -1152920405095219201
  %17 = or disjoint i64 %15, %16
  store i64 %17, ptr %7, align 8
  br label %_ZN4cvc58internal12NodeTemplateILb1EEC2ERKS2_.exit

18:                                               ; preds = %.lr.ph
  %19 = icmp eq i32 %11, 1048574
  br i1 %19, label %20, label %_ZN4cvc58internal12NodeTemplateILb1EEC2ERKS2_.exit, !prof !69

20:                                               ; preds = %18
  %21 = or i64 %8, 1152920405095219200
  store i64 %21, ptr %7, align 8
  tail call void @_ZN4cvc58internal4expr9NodeValue20markRefCountMaxedOutEv(ptr noundef nonnull align 8 dereferenceable(24) %7)
  br label %_ZN4cvc58internal12NodeTemplateILb1EEC2ERKS2_.exit

_ZN4cvc58internal12NodeTemplateILb1EEC2ERKS2_.exit: ; preds = %13, %18, %20
  invoke void @_ZN4cvc58internal13preprocessing6passes22PseudoBooleanProcessor5learnENS0_12NodeTemplateILb1EEE(ptr noundef nonnull align 8 dereferenceable(624) %0, ptr noundef nonnull %3)
          to label %22 unwind label %36

22:                                               ; preds = %_ZN4cvc58internal12NodeTemplateILb1EEC2ERKS2_.exit
  %23 = load i64, ptr %7, align 8
  %24 = and i64 %23, 1152920405095219200
  %.not.i.i = icmp eq i64 %24, 1152920405095219200
  br i1 %.not.i.i, label %_ZN4cvc58internal12NodeTemplateILb1EED2Ev.exit, label %25, !prof !69

25:                                               ; preds = %22
  %26 = add i64 %23, 1152920405095219200
  %27 = and i64 %26, 1152920405095219200
  %28 = and i64 %23, -1152920405095219201
  %29 = or disjoint i64 %27, %28
  store i64 %29, ptr %7, align 8
  %30 = icmp eq i64 %27, 0
  br i1 %30, label %31, label %_ZN4cvc58internal12NodeTemplateILb1EED2Ev.exit, !prof !69

31:                                               ; preds = %25
  invoke void @_ZN4cvc58internal4expr9NodeValue15markForDeletionEv(ptr noundef nonnull align 8 dereferenceable(24) %7)
          to label %_ZN4cvc58internal12NodeTemplateILb1EED2Ev.exit unwind label %32

32:                                               ; preds = %31
  %33 = landingpad { ptr, i32 }
          catch ptr null
  %34 = extractvalue { ptr, i32 } %33, 0
  tail call void @__clang_call_terminate(ptr %34) #27
  unreachable

_ZN4cvc58internal12NodeTemplateILb1EED2Ev.exit:   ; preds = %22, %25, %31
  %35 = getelementptr inbounds nuw i8, ptr %.sroa.05.09, i64 8
  %.not = icmp eq ptr %35, %6
  br i1 %.not, label %._crit_edge, label %.lr.ph, !llvm.loop !70

36:                                               ; preds = %_ZN4cvc58internal12NodeTemplateILb1EEC2ERKS2_.exit
  %37 = landingpad { ptr, i32 }
          cleanup
  call void @_ZN4cvc58internal12NodeTemplateILb1EED2Ev(ptr noundef nonnull align 8 dereferenceable(8) %3) #25
  resume { ptr, i32 } %37

._crit_edge:                                      ; preds = %_ZN4cvc58internal12NodeTemplateILb1EED2Ev.exit, %2
  ret void
}